target datalayout = "e-m:e-p270:32:32-p271:32:32-p272:64:64-i64:64-i128:128-f80:128-n8:16:32:64-S128"
target triple = "x86_64-unknown-linux-gnu"

%"class.std::ios_base::Init" = type { i8 }
%class.approx_set_tpl = type { i64 }

@_ZStL8__ioinit = internal global %"class.std::ios_base::Init" zeroinitializer, align 1
@__dso_handle = external hidden global i8
@.str = private unnamed_addr constant [2 x i8] c"{\00", align 1
@.str.1 = private unnamed_addr constant [3 x i8] c", \00", align 1
@.str.2 = private unnamed_addr constant [2 x i8] c"}\00", align 1
@llvm.global_ctors = appending global [1 x { i32, ptr, ptr }] [{ i32, ptr, ptr } { i32 65535, ptr @_GLOBAL__sub_I_approx_set.cpp, ptr null }]

; Function Attrs: uwtable
define internal void @__cxx_global_var_init() #0 section ".text.startup" {
entry:
  call void @_ZNSt8ios_base4InitC1Ev(ptr noundef nonnull align 1 dereferenceable(1) @_ZStL8__ioinit)
  %0 = call i32 @__cxa_atexit(ptr @_ZNSt8ios_base4InitD1Ev, ptr @_ZStL8__ioinit, ptr @__dso_handle) #3
  ret void
}

declare void @_ZNSt8ios_base4InitC1Ev(ptr noundef nonnull align 1 dereferenceable(1)) unnamed_addr #1

; Function Attrs: nounwind
declare void @_ZNSt8ios_base4InitD1Ev(ptr noundef nonnull align 1 dereferenceable(1)) unnamed_addr #2

; Function Attrs: nounwind
declare i32 @__cxa_atexit(ptr, ptr, ptr) #3

; Function Attrs: mustprogress uwtable
define hidden void @_ZNK10approx_set7displayERSo(ptr noundef nonnull align 8 dereferenceable(8) %this, ptr noundef nonnull align 8 dereferenceable(8) %out) #4 align 2 {
entry:
  %this.addr = alloca ptr, align 8
  %out.addr = alloca ptr, align 8
  %first = alloca i8, align 1
  %s = alloca i64, align 8
  %i = alloca i32, align 4
  store ptr %this, ptr %this.addr, align 8
  store ptr %out, ptr %out.addr, align 8
  %this1 = load ptr, ptr %this.addr, align 8
  %0 = load ptr, ptr %out.addr, align 8
  %call = call noundef nonnull align 8 dereferenceable(8) ptr @_ZStlsISt11char_traitsIcEERSt13basic_ostreamIcT_ES5_PKc(ptr noundef nonnull align 8 dereferenceable(8) %0, ptr noundef @.str)
  store i8 1, ptr %first, align 1
  %m_set = getelementptr inbounds %class.approx_set_tpl, ptr %this1, i32 0, i32 0
  %1 = load i64, ptr %m_set, align 8
  store i64 %1, ptr %s, align 8
  store i32 0, ptr %i, align 4
  br label %for.cond

for.cond:                                         ; preds = %for.inc, %entry
  %2 = load i32, ptr %i, align 4
  %cmp = icmp ult i32 %2, 64
  br i1 %cmp, label %for.body, label %for.end

for.body:                                         ; preds = %for.cond
  %3 = load i64, ptr %s, align 8
  %and = and i64 %3, 1
  %cmp2 = icmp ne i64 %and, 0
  br i1 %cmp2, label %if.then, label %if.end6

if.then:                                          ; preds = %for.body
  %4 = load i8, ptr %first, align 1
  %tobool = trunc i8 %4 to i1
  br i1 %tobool, label %if.then3, label %if.else

if.then3:                                         ; preds = %if.then
  store i8 0, ptr %first, align 1
  br label %if.end

if.else:                                          ; preds = %if.then
  %5 = load ptr, ptr %out.addr, align 8
  %call4 = call noundef nonnull align 8 dereferenceable(8) ptr @_ZStlsISt11char_traitsIcEERSt13basic_ostreamIcT_ES5_PKc(ptr noundef nonnull align 8 dereferenceable(8) %5, ptr noundef @.str.1)
  br label %if.end

if.end:                                           ; preds = %if.else, %if.then3
  %6 = load ptr, ptr %out.addr, align 8
  %7 = load i32, ptr %i, align 4
  %call5 = call noundef nonnull align 8 dereferenceable(8) ptr @_ZNSolsEj(ptr noundef nonnull align 8 dereferenceable(8) %6, i32 noundef %7)
  br label %if.end6

if.end6:                                          ; preds = %if.end, %for.body
  %8 = load i64, ptr %s, align 8
  %shr = lshr i64 %8, 1
  store i64 %shr, ptr %s, align 8
  br label %for.inc

for.inc:                                          ; preds = %if.end6
  %9 = load i32, ptr %i, align 4
  %inc = add i32 %9, 1
  store i32 %inc, ptr %i, align 4
  br label %for.cond, !llvm.loop !4

for.end:                                          ; preds = %for.cond
  %10 = load ptr, ptr %out.addr, align 8
  %call7 = call noundef nonnull align 8 dereferenceable(8) ptr @_ZStlsISt11char_traitsIcEERSt13basic_ostreamIcT_ES5_PKc(ptr noundef nonnull align 8 dereferenceable(8) %10, ptr noundef @.str.2)
  ret void
}

declare noundef nonnull align 8 dereferenceable(8) ptr @_ZStlsISt11char_traitsIcEERSt13basic_ostreamIcT_ES5_PKc(ptr noundef nonnull align 8 dereferenceable(8), ptr noundef) #1

declare noundef nonnull align 8 dereferenceable(8) ptr @_ZNSolsEj(ptr noundef nonnull align 8 dereferenceable(8), i32 noundef) #1

; Function Attrs: mustprogress nounwind uwtable
define hidden noundef i32 @_ZNK10approx_set4sizeEv(ptr noundef nonnull align 8 dereferenceable(8) %this) #5 align 2 {
entry:
  %this.addr = alloca ptr, align 8
  %tmp = alloca i64, align 8
  %r = alloca i32, align 4
  store ptr %this, ptr %this.addr, align 8
  %this1 = load ptr, ptr %this.addr, align 8
  %m_set = getelementptr inbounds %class.approx_set_tpl, ptr %this1, i32 0, i32 0
  %0 = load i64, ptr %m_set, align 8
  store i64 %0, ptr %tmp, align 8
  store i32 0, ptr %r, align 4
  br label %while.cond

while.cond:                                       ; preds = %if.end, %entry
  %1 = load i64, ptr %tmp, align 8
  %cmp = icmp ugt i64 %1, 0
  br i1 %cmp, label %while.body, label %while.end

while.body:                                       ; preds = %while.cond
  %2 = load i64, ptr %tmp, align 8
  %and = and i64 %2, 1
  %cmp2 = icmp ne i64 %and, 0
  br i1 %cmp2, label %if.then, label %if.end

if.then:                                          ; preds = %while.body
  %3 = load i32, ptr %r, align 4
  %inc = add i32 %3, 1
  store i32 %inc, ptr %r, align 4
  br label %if.end

if.end:                                           ; preds = %if.then, %while.body
  %4 = load i64, ptr %tmp, align 8
  %shr = lshr i64 %4, 1
  store i64 %shr, ptr %tmp, align 8
  br label %while.cond, !llvm.loop !6

while.end:                                        ; preds = %while.cond
  %5 = load i32, ptr %r, align 4
  ret i32 %5
}

; Function Attrs: uwtable
define internal void @_GLOBAL__sub_I_approx_set.cpp() #0 section ".text.startup" {
entry:
  call void @__cxx_global_var_init()
  ret void
}


!llvm.module.flags = !{!0, !1, !2, !3}

!0 = !{i32 1, !"wchar_size", i32 4}
!1 = !{i32 8, !"PIC Level", i32 2}
!2 = !{i32 7, !"uwtable", i32 2}
!3 = !{i32 7, !"frame-pointer", i32 2}
!4 = distinct !{!4, !5}
!5 = !{!"llvm.loop.mustprogress"}
!6 = distinct !{!6, !5}
