; ModuleID = 'bench/z3/original/approx_set.cpp.ll'
source_filename = "bench/z3/original/approx_set.cpp.ll"
target datalayout = "e-m:e-p270:32:32-p271:32:32-p272:64:64-i64:64-i128:128-f80:128-n8:16:32:64-S128"
target triple = "x86_64-unknown-linux-gnu"

%"class.std::ios_base::Init" = type { i8 }

@_ZStL8__ioinit = internal global %"class.std::ios_base::Init" zeroinitializer, align 1
@__dso_handle = external hidden global i8
@.str = private unnamed_addr constant [2 x i8] c"{\00", align 1
@.str.1 = private unnamed_addr constant [3 x i8] c", \00", align 1
@.str.2 = private unnamed_addr constant [2 x i8] c"}\00", align 1
@llvm.global_ctors = appending global [1 x { i32, ptr, ptr }] [{ i32, ptr, ptr } { i32 65535, ptr @_GLOBAL__sub_I_approx_set.cpp, ptr null }]

declare void @_ZNSt8ios_base4InitC1Ev(ptr noundef nonnull align 1 dereferenceable(1)) unnamed_addr #0

; Function Attrs: nounwind
declare void @_ZNSt8ios_base4InitD1Ev(ptr noundef nonnull align 1 dereferenceable(1)) unnamed_addr #1

; Function Attrs: nofree nounwind
declare i32 @__cxa_atexit(ptr, ptr, ptr) local_unnamed_addr #2

; Function Attrs: mustprogress uwtable
define hidden void @_ZNK10approx_set7displayERSo(ptr noundef nonnull readonly align 8 captures(none) dereferenceable(8) %this, ptr noundef nonnull align 8 dereferenceable(8) %out) local_unnamed_addr #3 align 2 {
entry:
  %call = tail call noundef nonnull align 8 dereferenceable(8) ptr @_ZStlsISt11char_traitsIcEERSt13basic_ostreamIcT_ES5_PKc(ptr noundef nonnull align 8 dereferenceable(8) %out, ptr noundef nonnull @.str)
  %0 = load i64, ptr %this, align 8
  br label %for.body

for.body:                                         ; preds = %entry, %if.end6
  %i.09 = phi i32 [ 0, %entry ], [ %inc, %if.end6 ]
  %s.08 = phi i64 [ %0, %entry ], [ %shr, %if.end6 ]
  %first.07 = phi i1 [ true, %entry ], [ %first.1, %if.end6 ]
  %and = and i64 %s.08, 1
  %cmp2.not = icmp eq i64 %and, 0
  br i1 %cmp2.not, label %if.end6, label %if.then

if.then:                                          ; preds = %for.body
  br i1 %first.07, label %if.end, label %if.else

if.else:                                          ; preds = %if.then
  %call4 = tail call noundef nonnull align 8 dereferenceable(8) ptr @_ZStlsISt11char_traitsIcEERSt13basic_ostreamIcT_ES5_PKc(ptr noundef nonnull align 8 dereferenceable(8) %out, ptr noundef nonnull @.str.1)
  br label %if.end

if.end:                                           ; preds = %if.then, %if.else
  %call5 = tail call noundef nonnull align 8 dereferenceable(8) ptr @_ZNSolsEj(ptr noundef nonnull align 8 dereferenceable(8) %out, i32 noundef %i.09)
  br label %if.end6

if.end6:                                          ; preds = %if.end, %for.body
  %first.1 = phi i1 [ false, %if.end ], [ %first.07, %for.body ]
  %shr = lshr i64 %s.08, 1
  %inc = add nuw nsw i32 %i.09, 1
  %exitcond.not = icmp eq i32 %inc, 64
  br i1 %exitcond.not, label %for.end, label %for.body, !llvm.loop !4

for.end:                                          ; preds = %if.end6
  %call7 = tail call noundef nonnull align 8 dereferenceable(8) ptr @_ZStlsISt11char_traitsIcEERSt13basic_ostreamIcT_ES5_PKc(ptr noundef nonnull align 8 dereferenceable(8) %out, ptr noundef nonnull @.str.2)
  ret void
}

declare noundef nonnull align 8 dereferenceable(8) ptr @_ZStlsISt11char_traitsIcEERSt13basic_ostreamIcT_ES5_PKc(ptr noundef nonnull align 8 dereferenceable(8), ptr noundef) local_unnamed_addr #0

declare noundef nonnull align 8 dereferenceable(8) ptr @_ZNSolsEj(ptr noundef nonnull align 8 dereferenceable(8), i32 noundef) local_unnamed_addr #0

; Function Attrs: mustprogress nofree norecurse nosync nounwind willreturn memory(argmem: read) uwtable
define hidden noundef i32 @_ZNK10approx_set4sizeEv(ptr noundef nonnull readonly align 8 captures(none) dereferenceable(8) %this) local_unnamed_addr #4 align 2 {
entry:
  %0 = load i64, ptr %this, align 8
  %cmp.not4 = icmp eq i64 %0, 0
  br i1 %cmp.not4, label %while.end, label %while.body

while.body:                                       ; preds = %entry, %while.body
  %r.06 = phi i32 [ %spec.select, %while.body ], [ 0, %entry ]
  %tmp.05 = phi i64 [ %shr, %while.body ], [ %0, %entry ]
  %1 = trunc i64 %tmp.05 to i32
  %2 = and i32 %1, 1
  %spec.select = add i32 %2, %r.06
  %shr = lshr i64 %tmp.05, 1
  %cmp.not = icmp ult i64 %tmp.05, 2
  br i1 %cmp.not, label %while.end, label %while.body, !llvm.loop !6

while.end:                                        ; preds = %while.body, %entry
  %r.0.lcssa = phi i32 [ 0, %entry ], [ %spec.select, %while.body ]
  ret i32 %r.0.lcssa
}

; Function Attrs: uwtable
define internal void @_GLOBAL__sub_I_approx_set.cpp() #5 section ".text.startup" {
entry:
  tail call void @_ZNSt8ios_base4InitC1Ev(ptr noundef nonnull align 1 dereferenceable(1) @_ZStL8__ioinit)
  %0 = tail call i32 @__cxa_atexit(ptr nonnull @_ZNSt8ios_base4InitD1Ev, ptr nonnull @_ZStL8__ioinit, ptr nonnull @__dso_handle) #6
  ret void
}


!llvm.module.flags = !{!0, !1, !2, !3}

!0 = !{i32 1, !"wchar_size", i32 4}
!1 = !{i32 8, !"PIC Level", i32 2}
!2 = !{i32 7, !"uwtable", i32 2}
!3 = !{i32 7, !"frame-pointer", i32 2}
!4 = distinct !{!4, !5}
!5 = !{!"llvm.loop.mustprogress"}
!6 = distinct !{!6, !5}
